target datalayout = "e-m:e-p270:32:32-p271:32:32-p272:64:64-i64:64-i128:128-f80:128-n8:16:32:64-S128"
target triple = "x86_64-pc-linux-gnu"

%"class.std::__cxx11::basic_string" = type { %"struct.std::__cxx11::basic_string<char>::_Alloc_hider", i64, %union.anon }
%"struct.std::__cxx11::basic_string<char>::_Alloc_hider" = type { ptr }
%union.anon = type { i64, [8 x i8] }
%"class.std::vector.5" = type { %"struct.std::_Vector_base.6" }
%"struct.std::_Vector_base.6" = type { %"struct.std::_Vector_base<int, std::allocator<int>>::_Vector_impl" }
%"struct.std::_Vector_base<int, std::allocator<int>>::_Vector_impl" = type { %"struct.std::_Vector_base<int, std::allocator<int>>::_Vector_impl_data" }
%"struct.std::_Vector_base<int, std::allocator<int>>::_Vector_impl_data" = type { ptr, ptr, ptr }
%"class.benchmark::internal::Benchmark" = type { ptr, %"class.std::__cxx11::basic_string", i32, %"class.std::vector.10", %"class.std::vector.15", i32, i8, i32, double, double, i64, i32, i8, i8, i8, i32, ptr, %"class.std::vector.20", %"class.std::vector.5", ptr, ptr }
%"class.std::vector.10" = type { %"struct.std::_Vector_base.11" }
%"struct.std::_Vector_base.11" = type { %"struct.std::_Vector_base<std::__cxx11::basic_string<char>, std::allocator<std::__cxx11::basic_string<char>>>::_Vector_impl" }
%"struct.std::_Vector_base<std::__cxx11::basic_string<char>, std::allocator<std::__cxx11::basic_string<char>>>::_Vector_impl" = type { %"struct.std::_Vector_base<std::__cxx11::basic_string<char>, std::allocator<std::__cxx11::basic_string<char>>>::_Vector_impl_data" }
%"struct.std::_Vector_base<std::__cxx11::basic_string<char>, std::allocator<std::__cxx11::basic_string<char>>>::_Vector_impl_data" = type { ptr, ptr, ptr }
%"class.std::vector.15" = type { %"struct.std::_Vector_base.16" }
%"struct.std::_Vector_base.16" = type { %"struct.std::_Vector_base<std::vector<long>, std::allocator<std::vector<long>>>::_Vector_impl" }
%"struct.std::_Vector_base<std::vector<long>, std::allocator<std::vector<long>>>::_Vector_impl" = type { %"struct.std::_Vector_base<std::vector<long>, std::allocator<std::vector<long>>>::_Vector_impl_data" }
%"struct.std::_Vector_base<std::vector<long>, std::allocator<std::vector<long>>>::_Vector_impl_data" = type { ptr, ptr, ptr }
%"class.std::vector.20" = type { %"struct.std::_Vector_base.21" }
%"struct.std::_Vector_base.21" = type { %"struct.std::_Vector_base<benchmark::internal::Statistics, std::allocator<benchmark::internal::Statistics>>::_Vector_impl" }
%"struct.std::_Vector_base<benchmark::internal::Statistics, std::allocator<benchmark::internal::Statistics>>::_Vector_impl" = type { %"struct.std::_Vector_base<benchmark::internal::Statistics, std::allocator<benchmark::internal::Statistics>>::_Vector_impl_data" }
%"struct.std::_Vector_base<benchmark::internal::Statistics, std::allocator<benchmark::internal::Statistics>>::_Vector_impl_data" = type { ptr, ptr, ptr }

; Function Attrs: mustprogress nounwind uwtable
define noundef ptr @_ZN9benchmark8internal9Benchmark21DisplayAggregatesOnlyEb(ptr noundef nonnull align 8 dereferenceable(224) %0, i1 noundef zeroext %1) #7 align 2 {
  %3 = alloca ptr, align 8
  %4 = alloca i8, align 1
  store ptr %0, ptr %3, align 8, !tbaa !70
  %5 = zext i1 %1 to i8
  store i8 %5, ptr %4, align 1, !tbaa !30
  %6 = load ptr, ptr %3, align 8
  %7 = getelementptr inbounds nuw %"class.benchmark::internal::Benchmark", ptr %6, i32 0, i32 2
  %8 = load i32, ptr %7, align 8, !tbaa !99
  %9 = or i32 %8, 1
  %10 = getelementptr inbounds nuw %"class.benchmark::internal::Benchmark", ptr %6, i32 0, i32 2
  store i32 %9, ptr %10, align 8, !tbaa !99
  %11 = load i8, ptr %4, align 1, !tbaa !30, !range !43, !noundef !44
  %12 = trunc i8 %11 to i1
  br i1 %12, label %13, label %18

13:                                               ; preds = %2
  %14 = getelementptr inbounds nuw %"class.benchmark::internal::Benchmark", ptr %6, i32 0, i32 2
  %15 = load i32, ptr %14, align 8, !tbaa !99
  %16 = or i32 %15, 4
  %17 = getelementptr inbounds nuw %"class.benchmark::internal::Benchmark", ptr %6, i32 0, i32 2
  store i32 %16, ptr %17, align 8, !tbaa !99
  br label %23

18:                                               ; preds = %2
  %19 = getelementptr inbounds nuw %"class.benchmark::internal::Benchmark", ptr %6, i32 0, i32 2
  %20 = load i32, ptr %19, align 8, !tbaa !99
  %21 = and i32 %20, -5
  %22 = getelementptr inbounds nuw %"class.benchmark::internal::Benchmark", ptr %6, i32 0, i32 2
  store i32 %21, ptr %22, align 8, !tbaa !99
  br label %23

23:                                               ; preds = %18, %13
  ret ptr %6
}