; Function Attrs: mustprogress nofree norecurse nosync nounwind willreturn memory(argmem: readwrite) uwtable
define noundef nonnull ptr @_ZN9benchmark8internal9Benchmark21DisplayAggregatesOnlyEb(ptr noundef nonnull returned align 8 captures(ret: address, provenance) dereferenceable(224) %0, i1 noundef zeroext %1) local_unnamed_addr #14 align 2 {
  %3 = getelementptr inbounds nuw i8, ptr %0, i64 40
  %4 = load i32, ptr %3, align 8, !tbaa !112
  %5 = and i32 %4, -6
  %6 = or disjoint i32 %5, 1
  %7 = or i32 %4, 5
  %storemerge = select i1 %1, i32 %7, i32 %6
  store i32 %storemerge, ptr %3, align 8, !tbaa !112
  ret ptr %0
}